CCS PCM C Compiler, Version 5.007, 61971               22-Ara-20 14:37

               Filename:   C:\Users\Ufuk\Desktop\Orhanufukgulec\kodlar\main.lst

               ROM used:   332 words (4%)
                           Largest free fragment is 2048
               RAM used:   6 (2%) at main() level
                           7 (2%) worst case
               Stack used: 0 locations
               Stack size: 8

*
0000:  MOVLW  01
0001:  MOVWF  0A
0002:  GOTO   137
0003:  NOP
.................... #include <main.h> 
.................... #include <16F877A.h> 
.................... //////// Standard Header file for the PIC16F877A device //////////////// 
.................... #device PIC16F877A 
....................  
.................... #list 
....................  
.................... #device ADC=16 
....................  
.................... #FUSES NOWDT                 	//No Watch Dog Timer 
.................... #FUSES NOBROWNOUT            	//No brownout reset 
.................... #FUSES NOLVP                 	//No low voltage prgming, B3(PIC16) or B5(PIC18) used for I/O 
....................  
.................... #use delay(crystal=20000000) 
....................  
....................  
.................... #use delay(clock=20M) 
*
0121:  MOVLW  21
0122:  MOVWF  04
0123:  BCF    03.7
0124:  MOVF   00,W
0125:  BTFSC  03.2
0126:  GOTO   134
0127:  MOVLW  06
0128:  MOVWF  78
0129:  CLRF   77
012A:  DECFSZ 77,F
012B:  GOTO   12A
012C:  DECFSZ 78,F
012D:  GOTO   129
012E:  MOVLW  7B
012F:  MOVWF  77
0130:  DECFSZ 77,F
0131:  GOTO   130
0132:  DECFSZ 00,F
0133:  GOTO   127
0134:  BCF    0A.3
0135:  BCF    0A.4
0136:  GOTO   14A (RETURN)
....................  
.................... #fuses BROWNOUT, HS, NOWDT, NOLVP 
....................  
.................... #define col1 pin_c4 
.................... #define col2 pin_c5 
.................... #define col3 pin_c6 
.................... #define col4 pin_c7 
....................  
.................... #define row1 pin_c0 
.................... #define row2 pin_c1 
.................... #define row3 pin_c2 
.................... #define row4 pin_c3 
....................  
.................... void kp_scan (void); 
....................  
.................... void main () 
0137:  MOVLW  FF
0138:  MOVWF  20
0139:  BSF    03.5
013A:  BSF    1F.0
013B:  BSF    1F.1
013C:  BSF    1F.2
013D:  BCF    1F.3
013E:  MOVLW  07
013F:  MOVWF  1C
0140:  BCF    03.7
0141:  MOVLW  1F
0142:  ANDWF  03,F
....................  { 
....................    output_b(0b00000000); 
0143:  CLRF   06
0144:  BCF    03.5
0145:  CLRF   06
....................      
....................    while (true) 
....................       { 
....................       kp_scan(); 
0146:  GOTO   004
....................     delay_ms(50); 
0147:  MOVLW  32
0148:  MOVWF  21
0149:  GOTO   121
014A:  GOTO   146
....................       } 
....................  } 
.................... void kp_scan(void) 
014B:  SLEEP
.................... { 
....................    output_high(row1); 
*
0004:  BCF    20.0
0005:  MOVF   20,W
0006:  BSF    03.5
0007:  MOVWF  07
0008:  BCF    03.5
0009:  BSF    07.0
....................    output_high(row2); 
000A:  BCF    20.1
000B:  MOVF   20,W
000C:  BSF    03.5
000D:  MOVWF  07
000E:  BCF    03.5
000F:  BSF    07.1
....................    output_high(row3); 
0010:  BCF    20.2
0011:  MOVF   20,W
0012:  BSF    03.5
0013:  MOVWF  07
0014:  BCF    03.5
0015:  BSF    07.2
....................    output_high(row4); 
0016:  BCF    20.3
0017:  MOVF   20,W
0018:  BSF    03.5
0019:  MOVWF  07
001A:  BCF    03.5
001B:  BSF    07.3
....................     
....................    output_low(row1); 
001C:  BCF    20.0
001D:  MOVF   20,W
001E:  BSF    03.5
001F:  MOVWF  07
0020:  BCF    03.5
0021:  BCF    07.0
....................    if(input(col1)==0) output_b(0b00000110);//1 
0022:  BSF    20.4
0023:  MOVF   20,W
0024:  BSF    03.5
0025:  MOVWF  07
0026:  BCF    03.5
0027:  BTFSC  07.4
0028:  GOTO   02E
0029:  BSF    03.5
002A:  CLRF   06
002B:  MOVLW  06
002C:  BCF    03.5
002D:  MOVWF  06
....................        
....................    output_high(row1); output_low(row2); 
002E:  BCF    20.0
002F:  MOVF   20,W
0030:  BSF    03.5
0031:  MOVWF  07
0032:  BCF    03.5
0033:  BSF    07.0
0034:  BCF    20.1
0035:  MOVF   20,W
0036:  BSF    03.5
0037:  MOVWF  07
0038:  BCF    03.5
0039:  BCF    07.1
....................    if(input(col1)==0) output_b(0b01100110);//4 
003A:  BSF    20.4
003B:  MOVF   20,W
003C:  BSF    03.5
003D:  MOVWF  07
003E:  BCF    03.5
003F:  BTFSC  07.4
0040:  GOTO   046
0041:  BSF    03.5
0042:  CLRF   06
0043:  MOVLW  66
0044:  BCF    03.5
0045:  MOVWF  06
....................        
....................    output_high(row2); output_low(row3); 
0046:  BCF    20.1
0047:  MOVF   20,W
0048:  BSF    03.5
0049:  MOVWF  07
004A:  BCF    03.5
004B:  BSF    07.1
004C:  BCF    20.2
004D:  MOVF   20,W
004E:  BSF    03.5
004F:  MOVWF  07
0050:  BCF    03.5
0051:  BCF    07.2
....................    if(input(col1)==0) output_b(0b00000111);//7 
0052:  BSF    20.4
0053:  MOVF   20,W
0054:  BSF    03.5
0055:  MOVWF  07
0056:  BCF    03.5
0057:  BTFSC  07.4
0058:  GOTO   05E
0059:  BSF    03.5
005A:  CLRF   06
005B:  MOVLW  07
005C:  BCF    03.5
005D:  MOVWF  06
....................        
....................    output_high(row3); output_low(row4); 
005E:  BCF    20.2
005F:  MOVF   20,W
0060:  BSF    03.5
0061:  MOVWF  07
0062:  BCF    03.5
0063:  BSF    07.2
0064:  BCF    20.3
0065:  MOVF   20,W
0066:  BSF    03.5
0067:  MOVWF  07
0068:  BCF    03.5
0069:  BCF    07.3
....................    if(input(col1)==0) output_b(0b00111001);//c 
006A:  BSF    20.4
006B:  MOVF   20,W
006C:  BSF    03.5
006D:  MOVWF  07
006E:  BCF    03.5
006F:  BTFSC  07.4
0070:  GOTO   076
0071:  BSF    03.5
0072:  CLRF   06
0073:  MOVLW  39
0074:  BCF    03.5
0075:  MOVWF  06
....................        
....................    output_high(row4); output_low(row1); 
0076:  BCF    20.3
0077:  MOVF   20,W
0078:  BSF    03.5
0079:  MOVWF  07
007A:  BCF    03.5
007B:  BSF    07.3
007C:  BCF    20.0
007D:  MOVF   20,W
007E:  BSF    03.5
007F:  MOVWF  07
0080:  BCF    03.5
0081:  BCF    07.0
....................    if(input(col2)==0) output_b(0b01011011);//2 
0082:  BSF    20.5
0083:  MOVF   20,W
0084:  BSF    03.5
0085:  MOVWF  07
0086:  BCF    03.5
0087:  BTFSC  07.5
0088:  GOTO   08E
0089:  BSF    03.5
008A:  CLRF   06
008B:  MOVLW  5B
008C:  BCF    03.5
008D:  MOVWF  06
....................        
....................    output_high(row1); output_low(row2); 
008E:  BCF    20.0
008F:  MOVF   20,W
0090:  BSF    03.5
0091:  MOVWF  07
0092:  BCF    03.5
0093:  BSF    07.0
0094:  BCF    20.1
0095:  MOVF   20,W
0096:  BSF    03.5
0097:  MOVWF  07
0098:  BCF    03.5
0099:  BCF    07.1
....................    if(input(col2)==0) output_b(0b01101101);//5 
009A:  BSF    20.5
009B:  MOVF   20,W
009C:  BSF    03.5
009D:  MOVWF  07
009E:  BCF    03.5
009F:  BTFSC  07.5
00A0:  GOTO   0A6
00A1:  BSF    03.5
00A2:  CLRF   06
00A3:  MOVLW  6D
00A4:  BCF    03.5
00A5:  MOVWF  06
....................        
....................    output_high(row2); output_low(row3); 
00A6:  BCF    20.1
00A7:  MOVF   20,W
00A8:  BSF    03.5
00A9:  MOVWF  07
00AA:  BCF    03.5
00AB:  BSF    07.1
00AC:  BCF    20.2
00AD:  MOVF   20,W
00AE:  BSF    03.5
00AF:  MOVWF  07
00B0:  BCF    03.5
00B1:  BCF    07.2
....................    if(input(col2)==0) output_b(0b01111111);//8 
00B2:  BSF    20.5
00B3:  MOVF   20,W
00B4:  BSF    03.5
00B5:  MOVWF  07
00B6:  BCF    03.5
00B7:  BTFSC  07.5
00B8:  GOTO   0BE
00B9:  BSF    03.5
00BA:  CLRF   06
00BB:  MOVLW  7F
00BC:  BCF    03.5
00BD:  MOVWF  06
....................        
....................    output_high(row3); output_low(row4); 
00BE:  BCF    20.2
00BF:  MOVF   20,W
00C0:  BSF    03.5
00C1:  MOVWF  07
00C2:  BCF    03.5
00C3:  BSF    07.2
00C4:  BCF    20.3
00C5:  MOVF   20,W
00C6:  BSF    03.5
00C7:  MOVWF  07
00C8:  BCF    03.5
00C9:  BCF    07.3
....................    if(input(col2)==0) output_b(0b00111111);//0 
00CA:  BSF    20.5
00CB:  MOVF   20,W
00CC:  BSF    03.5
00CD:  MOVWF  07
00CE:  BCF    03.5
00CF:  BTFSC  07.5
00D0:  GOTO   0D6
00D1:  BSF    03.5
00D2:  CLRF   06
00D3:  MOVLW  3F
00D4:  BCF    03.5
00D5:  MOVWF  06
....................        
....................    output_high(row4); output_low(row1); 
00D6:  BCF    20.3
00D7:  MOVF   20,W
00D8:  BSF    03.5
00D9:  MOVWF  07
00DA:  BCF    03.5
00DB:  BSF    07.3
00DC:  BCF    20.0
00DD:  MOVF   20,W
00DE:  BSF    03.5
00DF:  MOVWF  07
00E0:  BCF    03.5
00E1:  BCF    07.0
....................    if(input(col3)==0) output_b(0b01001111);//3 
00E2:  BSF    20.6
00E3:  MOVF   20,W
00E4:  BSF    03.5
00E5:  MOVWF  07
00E6:  BCF    03.5
00E7:  BTFSC  07.6
00E8:  GOTO   0EE
00E9:  BSF    03.5
00EA:  CLRF   06
00EB:  MOVLW  4F
00EC:  BCF    03.5
00ED:  MOVWF  06
....................        
....................    output_high(row1); output_low(row2); 
00EE:  BCF    20.0
00EF:  MOVF   20,W
00F0:  BSF    03.5
00F1:  MOVWF  07
00F2:  BCF    03.5
00F3:  BSF    07.0
00F4:  BCF    20.1
00F5:  MOVF   20,W
00F6:  BSF    03.5
00F7:  MOVWF  07
00F8:  BCF    03.5
00F9:  BCF    07.1
....................    if(input(col3)==0) output_b(0b01111101);//6 
00FA:  BSF    20.6
00FB:  MOVF   20,W
00FC:  BSF    03.5
00FD:  MOVWF  07
00FE:  BCF    03.5
00FF:  BTFSC  07.6
0100:  GOTO   106
0101:  BSF    03.5
0102:  CLRF   06
0103:  MOVLW  7D
0104:  BCF    03.5
0105:  MOVWF  06
....................        
....................    output_high(row2); output_low(row3); 
0106:  BCF    20.1
0107:  MOVF   20,W
0108:  BSF    03.5
0109:  MOVWF  07
010A:  BCF    03.5
010B:  BSF    07.1
010C:  BCF    20.2
010D:  MOVF   20,W
010E:  BSF    03.5
010F:  MOVWF  07
0110:  BCF    03.5
0111:  BCF    07.2
....................    if(input(col3)==0) output_b(0b01101111);//9 
0112:  BSF    20.6
0113:  MOVF   20,W
0114:  BSF    03.5
0115:  MOVWF  07
0116:  BCF    03.5
0117:  BTFSC  07.6
0118:  GOTO   11E
0119:  BSF    03.5
011A:  CLRF   06
011B:  MOVLW  6F
011C:  BCF    03.5
011D:  MOVWF  06
011E:  BCF    0A.3
011F:  BCF    0A.4
0120:  GOTO   147 (RETURN)
.................... } 

Configuration Fuses:
   Word  1: 3F72   HS NOWDT PUT BROWNOUT NOLVP NOCPD NOWRT NODEBUG NOPROTECT
